target datalayout = "e-m:e-p270:32:32-p271:32:32-p272:64:64-i64:64-i128:128-f80:128-n8:16:32:64-S128"
target triple = "x86_64-pc-linux-gnu"

%struct._lv_table_t = type { %struct._lv_obj_t, i32, i32, ptr, ptr, ptr, i32, i32 }
%struct._lv_obj_t = type { ptr, ptr, ptr, ptr, ptr, %struct.lv_area_t, i32, i16, i16 }
%struct.lv_area_t = type { i32, i32, i32, i32 }
%union.lv_style_value_t = type { ptr }

; Function Attrs: inlinehint nounwind uwtable
define internal i32 @lv_obj_get_style_pad_top(ptr noundef %0, i32 noundef %1) #4 {
  %3 = alloca ptr, align 8
  %4 = alloca i32, align 4
  %5 = alloca %union.lv_style_value_t, align 8
  store ptr %0, ptr %3, align 8, !tbaa !8
  store i32 %1, ptr %4, align 4, !tbaa !25
  call void @llvm.lifetime.start.p0(i64 8, ptr %5) #6
  %6 = load ptr, ptr %3, align 8, !tbaa !8
  %7 = load i32, ptr %4, align 4, !tbaa !25
  %8 = call ptr @lv_obj_get_style_prop(ptr noundef %6, i32 noundef %7, i8 noundef zeroext 16)
  %9 = getelementptr inbounds nuw %union.lv_style_value_t, ptr %5, i32 0, i32 0
  store ptr %8, ptr %9, align 8
  %10 = load i32, ptr %5, align 8, !tbaa !59
  call void @llvm.lifetime.end.p0(i64 8, ptr %5) #6
  ret i32 %10
}

; Function Attrs: inlinehint nounwind uwtable
define internal i32 @lv_obj_get_style_pad_left(ptr noundef %0, i32 noundef %1) #4 {
  %3 = alloca ptr, align 8
  %4 = alloca i32, align 4
  %5 = alloca %union.lv_style_value_t, align 8
  store ptr %0, ptr %3, align 8, !tbaa !8
  store i32 %1, ptr %4, align 4, !tbaa !25
  call void @llvm.lifetime.start.p0(i64 8, ptr %5) #6
  %6 = load ptr, ptr %3, align 8, !tbaa !8
  %7 = load i32, ptr %4, align 4, !tbaa !25
  %8 = call ptr @lv_obj_get_style_prop(ptr noundef %6, i32 noundef %7, i8 noundef zeroext 18)
  %9 = getelementptr inbounds nuw %union.lv_style_value_t, ptr %5, i32 0, i32 0
  store ptr %8, ptr %9, align 8
  %10 = load i32, ptr %5, align 8, !tbaa !59
  call void @llvm.lifetime.end.p0(i64 8, ptr %5) #6
  ret i32 %10
}

; Function Attrs: inlinehint nounwind uwtable
define internal i32 @lv_obj_get_style_pad_right(ptr noundef %0, i32 noundef %1) #4 {
  %3 = alloca ptr, align 8
  %4 = alloca i32, align 4
  %5 = alloca %union.lv_style_value_t, align 8
  store ptr %0, ptr %3, align 8, !tbaa !8
  store i32 %1, ptr %4, align 4, !tbaa !25
  call void @llvm.lifetime.start.p0(i64 8, ptr %5) #6
  %6 = load ptr, ptr %3, align 8, !tbaa !8
  %7 = load i32, ptr %4, align 4, !tbaa !25
  %8 = call ptr @lv_obj_get_style_prop(ptr noundef %6, i32 noundef %7, i8 noundef zeroext 19)
  %9 = getelementptr inbounds nuw %union.lv_style_value_t, ptr %5, i32 0, i32 0
  store ptr %8, ptr %9, align 8
  %10 = load i32, ptr %5, align 8, !tbaa !59
  call void @llvm.lifetime.end.p0(i64 8, ptr %5) #6
  ret i32 %10
}

; Function Attrs: inlinehint nounwind uwtable
define internal i32 @lv_obj_get_style_base_dir(ptr noundef %0, i32 noundef %1) #4 {
  %3 = alloca ptr, align 8
  %4 = alloca i32, align 4
  %5 = alloca %union.lv_style_value_t, align 8
  store ptr %0, ptr %3, align 8, !tbaa !8
  store i32 %1, ptr %4, align 4, !tbaa !25
  call void @llvm.lifetime.start.p0(i64 8, ptr %5) #6
  %6 = load ptr, ptr %3, align 8, !tbaa !8
  %7 = load i32, ptr %4, align 4, !tbaa !25
  %8 = call ptr @lv_obj_get_style_prop(ptr noundef %6, i32 noundef %7, i8 noundef zeroext 39)
  %9 = getelementptr inbounds nuw %union.lv_style_value_t, ptr %5, i32 0, i32 0
  store ptr %8, ptr %9, align 8
  %10 = load i32, ptr %5, align 8, !tbaa !59
  call void @llvm.lifetime.end.p0(i64 8, ptr %5) #6
  ret i32 %10
}

; Function Attrs: nounwind uwtable
define internal void @get_cell_area(ptr noundef %0, i32 noundef %1, i32 noundef %2, ptr noundef %3) #0 {
  %5 = alloca ptr, align 8
  %6 = alloca i32, align 4
  %7 = alloca i32, align 4
  %8 = alloca ptr, align 8
  %9 = alloca ptr, align 8
  %10 = alloca i32, align 4
  %11 = alloca i8, align 1
  %12 = alloca i32, align 4
  %13 = alloca i32, align 4
  store ptr %0, ptr %5, align 8, !tbaa !8
  store i32 %1, ptr %6, align 4, !tbaa !25
  store i32 %2, ptr %7, align 4, !tbaa !25
  store ptr %3, ptr %8, align 8, !tbaa !37
  call void @llvm.lifetime.start.p0(i64 8, ptr %9) #6
  %14 = load ptr, ptr %5, align 8, !tbaa !8
  store ptr %14, ptr %9, align 8, !tbaa !10
  call void @llvm.lifetime.start.p0(i64 4, ptr %10) #6
  %15 = load ptr, ptr %8, align 8, !tbaa !37
  %16 = getelementptr inbounds nuw %struct.lv_area_t, ptr %15, i32 0, i32 0
  store i32 0, ptr %16, align 4, !tbaa !62
  store i32 0, ptr %10, align 4, !tbaa !25
  br label %17

17:                                               ; preds = %33, %4
  %18 = load i32, ptr %10, align 4, !tbaa !25
  %19 = load i32, ptr %7, align 4, !tbaa !25
  %20 = icmp ult i32 %18, %19
  br i1 %20, label %21, label %36

21:                                               ; preds = %17
  %22 = load ptr, ptr %9, align 8, !tbaa !10
  %23 = getelementptr inbounds nuw %struct._lv_table_t, ptr %22, i32 0, i32 5
  %24 = load ptr, ptr %23, align 8, !tbaa !23
  %25 = load i32, ptr %10, align 4, !tbaa !25
  %26 = zext i32 %25 to i64
  %27 = getelementptr inbounds nuw i32, ptr %24, i64 %26
  %28 = load i32, ptr %27, align 4, !tbaa !25
  %29 = load ptr, ptr %8, align 8, !tbaa !37
  %30 = getelementptr inbounds nuw %struct.lv_area_t, ptr %29, i32 0, i32 0
  %31 = load i32, ptr %30, align 4, !tbaa !62
  %32 = add nsw i32 %31, %28
  store i32 %32, ptr %30, align 4, !tbaa !62
  br label %33

33:                                               ; preds = %21
  %34 = load i32, ptr %10, align 4, !tbaa !25
  %35 = add i32 %34, 1
  store i32 %35, ptr %10, align 4, !tbaa !25
  br label %17, !llvm.loop !102

36:                                               ; preds = %17
  call void @llvm.lifetime.start.p0(i64 1, ptr %11) #6
  %37 = load ptr, ptr %5, align 8, !tbaa !8
  %38 = call i32 @lv_obj_get_style_base_dir(ptr noundef %37, i32 noundef 0)
  %39 = icmp eq i32 %38, 1
  %40 = zext i1 %39 to i8
  store i8 %40, ptr %11, align 1, !tbaa !67
  %41 = load i8, ptr %11, align 1, !tbaa !67, !range !72, !noundef !73
  %42 = trunc i8 %41 to i1
  br i1 %42, label %43, label %75

43:                                               ; preds = %36
  %44 = load ptr, ptr %5, align 8, !tbaa !8
  %45 = call i32 @lv_obj_get_scroll_x(ptr noundef %44)
  %46 = load ptr, ptr %8, align 8, !tbaa !37
  %47 = getelementptr inbounds nuw %struct.lv_area_t, ptr %46, i32 0, i32 0
  %48 = load i32, ptr %47, align 4, !tbaa !62
  %49 = add nsw i32 %48, %45
  store i32 %49, ptr %47, align 4, !tbaa !62
  call void @llvm.lifetime.start.p0(i64 4, ptr %12) #6
  %50 = load ptr, ptr %5, align 8, !tbaa !8
  %51 = call i32 @lv_obj_get_width(ptr noundef %50)
  store i32 %51, ptr %12, align 4, !tbaa !25
  %52 = load i32, ptr %12, align 4, !tbaa !25
  %53 = load ptr, ptr %8, align 8, !tbaa !37
  %54 = getelementptr inbounds nuw %struct.lv_area_t, ptr %53, i32 0, i32 0
  %55 = load i32, ptr %54, align 4, !tbaa !62
  %56 = sub nsw i32 %52, %55
  %57 = load ptr, ptr %5, align 8, !tbaa !8
  %58 = call i32 @lv_obj_get_style_pad_right(ptr noundef %57, i32 noundef 0)
  %59 = sub nsw i32 %56, %58
  %60 = load ptr, ptr %8, align 8, !tbaa !37
  %61 = getelementptr inbounds nuw %struct.lv_area_t, ptr %60, i32 0, i32 2
  store i32 %59, ptr %61, align 4, !tbaa !63
  %62 = load ptr, ptr %8, align 8, !tbaa !37
  %63 = getelementptr inbounds nuw %struct.lv_area_t, ptr %62, i32 0, i32 2
  %64 = load i32, ptr %63, align 4, !tbaa !63
  %65 = load ptr, ptr %9, align 8, !tbaa !10
  %66 = getelementptr inbounds nuw %struct._lv_table_t, ptr %65, i32 0, i32 5
  %67 = load ptr, ptr %66, align 8, !tbaa !23
  %68 = load i32, ptr %7, align 4, !tbaa !25
  %69 = zext i32 %68 to i64
  %70 = getelementptr inbounds nuw i32, ptr %67, i64 %69
  %71 = load i32, ptr %70, align 4, !tbaa !25
  %72 = sub nsw i32 %64, %71
  %73 = load ptr, ptr %8, align 8, !tbaa !37
  %74 = getelementptr inbounds nuw %struct.lv_area_t, ptr %73, i32 0, i32 0
  store i32 %72, ptr %74, align 4, !tbaa !62
  call void @llvm.lifetime.end.p0(i64 4, ptr %12) #6
  br label %102

75:                                               ; preds = %36
  %76 = load ptr, ptr %5, align 8, !tbaa !8
  %77 = call i32 @lv_obj_get_scroll_x(ptr noundef %76)
  %78 = load ptr, ptr %8, align 8, !tbaa !37
  %79 = getelementptr inbounds nuw %struct.lv_area_t, ptr %78, i32 0, i32 0
  %80 = load i32, ptr %79, align 4, !tbaa !62
  %81 = sub nsw i32 %80, %77
  store i32 %81, ptr %79, align 4, !tbaa !62
  %82 = load ptr, ptr %5, align 8, !tbaa !8
  %83 = call i32 @lv_obj_get_style_pad_left(ptr noundef %82, i32 noundef 0)
  %84 = load ptr, ptr %8, align 8, !tbaa !37
  %85 = getelementptr inbounds nuw %struct.lv_area_t, ptr %84, i32 0, i32 0
  %86 = load i32, ptr %85, align 4, !tbaa !62
  %87 = add nsw i32 %86, %83
  store i32 %87, ptr %85, align 4, !tbaa !62
  %88 = load ptr, ptr %8, align 8, !tbaa !37
  %89 = getelementptr inbounds nuw %struct.lv_area_t, ptr %88, i32 0, i32 0
  %90 = load i32, ptr %89, align 4, !tbaa !62
  %91 = load ptr, ptr %9, align 8, !tbaa !10
  %92 = getelementptr inbounds nuw %struct._lv_table_t, ptr %91, i32 0, i32 5
  %93 = load ptr, ptr %92, align 8, !tbaa !23
  %94 = load i32, ptr %7, align 4, !tbaa !25
  %95 = zext i32 %94 to i64
  %96 = getelementptr inbounds nuw i32, ptr %93, i64 %95
  %97 = load i32, ptr %96, align 4, !tbaa !25
  %98 = add nsw i32 %90, %97
  %99 = sub nsw i32 %98, 1
  %100 = load ptr, ptr %8, align 8, !tbaa !37
  %101 = getelementptr inbounds nuw %struct.lv_area_t, ptr %100, i32 0, i32 2
  store i32 %99, ptr %101, align 4, !tbaa !63
  br label %102

102:                                              ; preds = %75, %43
  call void @llvm.lifetime.start.p0(i64 4, ptr %13) #6
  %103 = load ptr, ptr %8, align 8, !tbaa !37
  %104 = getelementptr inbounds nuw %struct.lv_area_t, ptr %103, i32 0, i32 1
  store i32 0, ptr %104, align 4, !tbaa !64
  store i32 0, ptr %13, align 4, !tbaa !25
  br label %105

105:                                              ; preds = %121, %102
  %106 = load i32, ptr %13, align 4, !tbaa !25
  %107 = load i32, ptr %6, align 4, !tbaa !25
  %108 = icmp ult i32 %106, %107
  br i1 %108, label %109, label %124

109:                                              ; preds = %105
  %110 = load ptr, ptr %9, align 8, !tbaa !10
  %111 = getelementptr inbounds nuw %struct._lv_table_t, ptr %110, i32 0, i32 4
  %112 = load ptr, ptr %111, align 8, !tbaa !24
  %113 = load i32, ptr %13, align 4, !tbaa !25
  %114 = zext i32 %113 to i64
  %115 = getelementptr inbounds nuw i32, ptr %112, i64 %114
  %116 = load i32, ptr %115, align 4, !tbaa !25
  %117 = load ptr, ptr %8, align 8, !tbaa !37
  %118 = getelementptr inbounds nuw %struct.lv_area_t, ptr %117, i32 0, i32 1
  %119 = load i32, ptr %118, align 4, !tbaa !64
  %120 = add nsw i32 %119, %116
  store i32 %120, ptr %118, align 4, !tbaa !64
  br label %121

121:                                              ; preds = %109
  %122 = load i32, ptr %13, align 4, !tbaa !25
  %123 = add i32 %122, 1
  store i32 %123, ptr %13, align 4, !tbaa !25
  br label %105, !llvm.loop !103

124:                                              ; preds = %105
  %125 = load ptr, ptr %5, align 8, !tbaa !8
  %126 = call i32 @lv_obj_get_style_pad_top(ptr noundef %125, i32 noundef 0)
  %127 = load ptr, ptr %8, align 8, !tbaa !37
  %128 = getelementptr inbounds nuw %struct.lv_area_t, ptr %127, i32 0, i32 1
  %129 = load i32, ptr %128, align 4, !tbaa !64
  %130 = add nsw i32 %129, %126
  store i32 %130, ptr %128, align 4, !tbaa !64
  %131 = load ptr, ptr %5, align 8, !tbaa !8
  %132 = call i32 @lv_obj_get_scroll_y(ptr noundef %131)
  %133 = load ptr, ptr %8, align 8, !tbaa !37
  %134 = getelementptr inbounds nuw %struct.lv_area_t, ptr %133, i32 0, i32 1
  %135 = load i32, ptr %134, align 4, !tbaa !64
  %136 = sub nsw i32 %135, %132
  store i32 %136, ptr %134, align 4, !tbaa !64
  %137 = load ptr, ptr %8, align 8, !tbaa !37
  %138 = getelementptr inbounds nuw %struct.lv_area_t, ptr %137, i32 0, i32 1
  %139 = load i32, ptr %138, align 4, !tbaa !64
  %140 = load ptr, ptr %9, align 8, !tbaa !10
  %141 = getelementptr inbounds nuw %struct._lv_table_t, ptr %140, i32 0, i32 4
  %142 = load ptr, ptr %141, align 8, !tbaa !24
  %143 = load i32, ptr %6, align 4, !tbaa !25
  %144 = zext i32 %143 to i64
  %145 = getelementptr inbounds nuw i32, ptr %142, i64 %144
  %146 = load i32, ptr %145, align 4, !tbaa !25
  %147 = add nsw i32 %139, %146
  %148 = sub nsw i32 %147, 1
  %149 = load ptr, ptr %8, align 8, !tbaa !37
  %150 = getelementptr inbounds nuw %struct.lv_area_t, ptr %149, i32 0, i32 3
  store i32 %148, ptr %150, align 4, !tbaa !65
  call void @llvm.lifetime.end.p0(i64 4, ptr %13) #6
  call void @llvm.lifetime.end.p0(i64 1, ptr %11) #6
  call void @llvm.lifetime.end.p0(i64 4, ptr %10) #6
  call void @llvm.lifetime.end.p0(i64 8, ptr %9) #6
  ret void
}