; Function Attrs: nounwind uwtable
define internal fastcc void @get_cell_area(ptr noundef %0, i32 noundef %1, i32 noundef %2, ptr noundef nonnull captures(none) initializes((0, 4)) %3) unnamed_addr #0 {
  store i32 0, ptr %3, align 4, !tbaa !48
  %.not = icmp eq i32 %2, 0
  br i1 %.not, label %._crit_edge, label %.lr.ph

.lr.ph:                                           ; preds = %4
  %5 = getelementptr inbounds nuw i8, ptr %0, i64 88
  %6 = load ptr, ptr %5, align 8, !tbaa !19
  %wide.trip.count = zext i32 %2 to i64
  br label %7

7:                                                ; preds = %.lr.ph, %7
  %indvars.iv = phi i64 [ 0, %.lr.ph ], [ %indvars.iv.next, %7 ]
  %8 = phi i32 [ 0, %.lr.ph ], [ %11, %7 ]
  %9 = getelementptr inbounds nuw i32, ptr %6, i64 %indvars.iv
  %10 = load i32, ptr %9, align 4, !tbaa !21
  %11 = add nsw i32 %8, %10
  store i32 %11, ptr %3, align 4, !tbaa !48
  %indvars.iv.next = add nuw nsw i64 %indvars.iv, 1
  %exitcond.not = icmp eq i64 %indvars.iv.next, %wide.trip.count
  br i1 %exitcond.not, label %._crit_edge, label %7, !llvm.loop !82

._crit_edge:                                      ; preds = %7, %4
  %12 = tail call ptr @lv_obj_get_style_prop(ptr noundef %0, i32 noundef 0, i8 noundef zeroext 39) #9
  %13 = ptrtoint ptr %12 to i64
  %14 = and i64 %13, 4294967295
  %15 = icmp eq i64 %14, 1
  %16 = tail call i32 @lv_obj_get_scroll_x(ptr noundef %0) #9
  %17 = load i32, ptr %3, align 4, !tbaa !48
  br i1 %15, label %18, label %33

18:                                               ; preds = %._crit_edge
  %19 = add nsw i32 %17, %16
  store i32 %19, ptr %3, align 4, !tbaa !48
  %20 = tail call i32 @lv_obj_get_width(ptr noundef %0) #9
  %21 = load i32, ptr %3, align 4, !tbaa !48
  %22 = tail call ptr @lv_obj_get_style_prop(ptr noundef %0, i32 noundef 0, i8 noundef zeroext 19) #9
  %23 = ptrtoint ptr %22 to i64
  %.sroa.0.0.extract.trunc.i46 = trunc i64 %23 to i32
  %24 = add i32 %21, %.sroa.0.0.extract.trunc.i46
  %25 = sub i32 %20, %24
  %26 = getelementptr inbounds nuw i8, ptr %3, i64 8
  store i32 %25, ptr %26, align 4, !tbaa !49
  %27 = getelementptr inbounds nuw i8, ptr %0, i64 88
  %28 = load ptr, ptr %27, align 8, !tbaa !19
  %29 = zext i32 %2 to i64
  %30 = getelementptr inbounds nuw i32, ptr %28, i64 %29
  %31 = load i32, ptr %30, align 4, !tbaa !21
  %32 = sub nsw i32 %25, %31
  store i32 %32, ptr %3, align 4, !tbaa !48
  br label %47

33:                                               ; preds = %._crit_edge
  %34 = sub nsw i32 %17, %16
  store i32 %34, ptr %3, align 4, !tbaa !48
  %35 = tail call ptr @lv_obj_get_style_prop(ptr noundef %0, i32 noundef 0, i8 noundef zeroext 18) #9
  %36 = ptrtoint ptr %35 to i64
  %.sroa.0.0.extract.trunc.i47 = trunc i64 %36 to i32
  %37 = load i32, ptr %3, align 4, !tbaa !48
  %38 = add nsw i32 %37, %.sroa.0.0.extract.trunc.i47
  store i32 %38, ptr %3, align 4, !tbaa !48
  %39 = getelementptr inbounds nuw i8, ptr %0, i64 88
  %40 = load ptr, ptr %39, align 8, !tbaa !19
  %41 = zext i32 %2 to i64
  %42 = getelementptr inbounds nuw i32, ptr %40, i64 %41
  %43 = load i32, ptr %42, align 4, !tbaa !21
  %44 = add i32 %38, -1
  %45 = add i32 %44, %43
  %46 = getelementptr inbounds nuw i8, ptr %3, i64 8
  store i32 %45, ptr %46, align 4, !tbaa !49
  br label %47

47:                                               ; preds = %33, %18
  %48 = getelementptr inbounds nuw i8, ptr %3, i64 4
  store i32 0, ptr %48, align 4, !tbaa !50
  %.not56 = icmp eq i32 %1, 0
  br i1 %.not56, label %._crit_edge54, label %.lr.ph53

.lr.ph53:                                         ; preds = %47
  %49 = getelementptr inbounds nuw i8, ptr %0, i64 80
  %50 = load ptr, ptr %49, align 8, !tbaa !20
  %wide.trip.count61 = zext i32 %1 to i64
  br label %51

51:                                               ; preds = %.lr.ph53, %51
  %indvars.iv58 = phi i64 [ 0, %.lr.ph53 ], [ %indvars.iv.next59, %51 ]
  %52 = phi i32 [ 0, %.lr.ph53 ], [ %55, %51 ]
  %53 = getelementptr inbounds nuw i32, ptr %50, i64 %indvars.iv58
  %54 = load i32, ptr %53, align 4, !tbaa !21
  %55 = add nsw i32 %52, %54
  store i32 %55, ptr %48, align 4, !tbaa !50
  %indvars.iv.next59 = add nuw nsw i64 %indvars.iv58, 1
  %exitcond62.not = icmp eq i64 %indvars.iv.next59, %wide.trip.count61
  br i1 %exitcond62.not, label %._crit_edge54, label %51, !llvm.loop !83

._crit_edge54:                                    ; preds = %51, %47
  %.pre-phi = phi i64 [ 0, %47 ], [ %wide.trip.count61, %51 ]
  %56 = tail call ptr @lv_obj_get_style_prop(ptr noundef nonnull %0, i32 noundef 0, i8 noundef zeroext 16) #9
  %57 = ptrtoint ptr %56 to i64
  %.sroa.0.0.extract.trunc.i48 = trunc i64 %57 to i32
  %58 = load i32, ptr %48, align 4, !tbaa !50
  %59 = add nsw i32 %58, %.sroa.0.0.extract.trunc.i48
  store i32 %59, ptr %48, align 4, !tbaa !50
  %60 = tail call i32 @lv_obj_get_scroll_y(ptr noundef nonnull %0) #9
  %61 = load i32, ptr %48, align 4, !tbaa !50
  %62 = sub nsw i32 %61, %60
  store i32 %62, ptr %48, align 4, !tbaa !50
  %63 = getelementptr inbounds nuw i8, ptr %0, i64 80
  %64 = load ptr, ptr %63, align 8, !tbaa !20
  %65 = getelementptr inbounds nuw i32, ptr %64, i64 %.pre-phi
  %66 = load i32, ptr %65, align 4, !tbaa !21
  %67 = add i32 %62, -1
  %68 = add i32 %67, %66
  %69 = getelementptr inbounds nuw i8, ptr %3, i64 12
  store i32 %68, ptr %69, align 4, !tbaa !51
  ret void
}